target datalayout = "e-m:e-p270:32:32-p271:32:32-p272:64:64-i64:64-i128:128-f80:128-n8:16:32:64-S128"
target triple = "x86_64-pc-linux-gnu"

%struct.H5S_sel_iter_t = type { ptr, i32, [32 x i64], [32 x i64], i64, i64, i32, %union.anon.1 }
%union.anon.1 = type { %struct.H5S_hyper_iter_t }
%struct.H5S_hyper_iter_t = type { [32 x i64], [32 x i64], i32, i8, [32 x %struct.H5S_hyper_dim_t], [32 x i64], [32 x i64], [32 x i8], [32 x i64], ptr, [32 x ptr] }
%struct.H5S_hyper_dim_t = type { i64, i64, i64, i64 }
%struct.H5S_sel_iter_class_t = type { i32, ptr, ptr, ptr, ptr, ptr, ptr, ptr, ptr }

@.str.1 = private unnamed_addr constant [103 x i8] c"generated/home/dtcxzyw/WorkSpace/Projects/compilers/llvm-opt-benchmark/bench/hdf5/hdf5/src/H5Sselect.c\00", align 1
@H5E_DATASPACE_g = external global i64, align 8
@H5E_CANTGET_g = external global i64, align 8
@__func__.H5S_select_iter_get_seq_list = private unnamed_addr constant [29 x i8] c"H5S_select_iter_get_seq_list\00", align 1
@.str.19 = private unnamed_addr constant [38 x i8] c"unable to get selection sequence list\00", align 1

; Function Attrs: nounwind uwtable
define i32 @H5S_select_iter_get_seq_list(ptr noundef %0, i64 noundef %1, i64 noundef %2, ptr noundef %3, ptr noundef %4, ptr noundef %5, ptr noundef %6) #0 {
  %8 = alloca ptr, align 8
  %9 = alloca i64, align 8
  %10 = alloca i64, align 8
  %11 = alloca ptr, align 8
  %12 = alloca ptr, align 8
  %13 = alloca ptr, align 8
  %14 = alloca ptr, align 8
  %15 = alloca i32, align 4
  %16 = alloca i8, align 1
  store ptr %0, ptr %8, align 8
  store i64 %1, ptr %9, align 8
  store i64 %2, ptr %10, align 8
  store ptr %3, ptr %11, align 8
  store ptr %4, ptr %12, align 8
  store ptr %5, ptr %13, align 8
  store ptr %6, ptr %14, align 8
  store i32 -1, ptr %15, align 4
  store i8 0, ptr %16, align 1
  %17 = load ptr, ptr %8, align 8
  %18 = getelementptr inbounds %struct.H5S_sel_iter_t, ptr %17, i32 0, i32 0
  %19 = load ptr, ptr %18, align 8
  %20 = getelementptr inbounds %struct.H5S_sel_iter_class_t, ptr %19, i32 0, i32 7
  %21 = load ptr, ptr %20, align 8
  %22 = load ptr, ptr %8, align 8
  %23 = load i64, ptr %9, align 8
  %24 = load i64, ptr %10, align 8
  %25 = load ptr, ptr %11, align 8
  %26 = load ptr, ptr %12, align 8
  %27 = load ptr, ptr %13, align 8
  %28 = load ptr, ptr %14, align 8
  %29 = call i32 %21(ptr noundef %22, i64 noundef %23, i64 noundef %24, ptr noundef %25, ptr noundef %26, ptr noundef %27, ptr noundef %28)
  store i32 %29, ptr %15, align 4
  %30 = icmp slt i32 %29, 0
  br i1 %30, label %31, label %46

31:                                               ; preds = %7
  br label %32

32:                                               ; preds = %31
  br label %33

33:                                               ; preds = %32
  br label %34

34:                                               ; preds = %33
  %35 = load i64, ptr @H5E_DATASPACE_g, align 8
  %36 = load i64, ptr @H5E_CANTGET_g, align 8
  %37 = call i32 (ptr, ptr, i32, i64, i64, ptr, ...) @H5E_printf_stack(ptr noundef @.str.1, ptr noundef @__func__.H5S_select_iter_get_seq_list, i32 noundef 1282, i64 noundef %35, i64 noundef %36, ptr noundef @.str.19)
  br label %38

38:                                               ; preds = %34
  store i8 1, ptr %16, align 1
  %39 = load i8, ptr %16, align 1
  %40 = trunc i8 %39 to i1
  %41 = zext i1 %40 to i8
  store i8 %41, ptr %16, align 1
  br label %42

42:                                               ; preds = %38
  br label %43

43:                                               ; preds = %42
  store i32 -1, ptr %15, align 4
  br label %47

44:                                               ; No predecessors!
  br label %45

45:                                               ; preds = %44
  br label %46

46:                                               ; preds = %45, %7
  br label %47

47:                                               ; preds = %46, %43
  %48 = load i32, ptr %15, align 4
  ret i32 %48
}