; Function Attrs: nounwind uwtable
define range(i32 -1, -2147483648) i32 @H5S_select_iter_get_seq_list(ptr noundef %0, i64 noundef %1, i64 noundef %2, ptr noundef %3, ptr noundef %4, ptr noundef %5, ptr noundef %6) local_unnamed_addr #3 {
  %8 = load ptr, ptr %0, align 8
  %9 = getelementptr inbounds i8, ptr %8, i64 56
  %10 = load ptr, ptr %9, align 8
  %11 = tail call i32 %10(ptr noundef nonnull %0, i64 noundef %1, i64 noundef %2, ptr noundef %3, ptr noundef %4, ptr noundef %5, ptr noundef %6) #7
  %12 = icmp slt i32 %11, 0
  br i1 %12, label %13, label %17

13:                                               ; preds = %7
  %14 = load i64, ptr @H5E_DATASPACE_g, align 8
  %15 = load i64, ptr @H5E_CANTGET_g, align 8
  %16 = tail call i32 (ptr, ptr, i32, i64, i64, ptr, ...) @H5E_printf_stack(ptr noundef nonnull @.str.1, ptr noundef nonnull @__func__.H5S_select_iter_get_seq_list, i32 noundef 1282, i64 noundef %14, i64 noundef %15, ptr noundef nonnull @.str.19) #7
  br label %17

17:                                               ; preds = %7, %13
  %.0 = phi i32 [ -1, %13 ], [ %11, %7 ]
  ret i32 %.0
}